target datalayout = "e-m:e-p270:32:32-p271:32:32-p272:64:64-i64:64-i128:128-f80:128-n8:16:32:64-S128"
target triple = "x86_64-pc-linux-gnu"

%struct.JNINativeInterface_ = type { ptr, ptr, ptr, ptr, ptr, ptr, ptr, ptr, ptr, ptr, ptr, ptr, ptr, ptr, ptr, ptr, ptr, ptr, ptr, ptr, ptr, ptr, ptr, ptr, ptr, ptr, ptr, ptr, ptr, ptr, ptr, ptr, ptr, ptr, ptr, ptr, ptr, ptr, ptr, ptr, ptr, ptr, ptr, ptr, ptr, ptr, ptr, ptr, ptr, ptr, ptr, ptr, ptr, ptr, ptr, ptr, ptr, ptr, ptr, ptr, ptr, ptr, ptr, ptr, ptr, ptr, ptr, ptr, ptr, ptr, ptr, ptr, ptr, ptr, ptr, ptr, ptr, ptr, ptr, ptr, ptr, ptr, ptr, ptr, ptr, ptr, ptr, ptr, ptr, ptr, ptr, ptr, ptr, ptr, ptr, ptr, ptr, ptr, ptr, ptr, ptr, ptr, ptr, ptr, ptr, ptr, ptr, ptr, ptr, ptr, ptr, ptr, ptr, ptr, ptr, ptr, ptr, ptr, ptr, ptr, ptr, ptr, ptr, ptr, ptr, ptr, ptr, ptr, ptr, ptr, ptr, ptr, ptr, ptr, ptr, ptr, ptr, ptr, ptr, ptr, ptr, ptr, ptr, ptr, ptr, ptr, ptr, ptr, ptr, ptr, ptr, ptr, ptr, ptr, ptr, ptr, ptr, ptr, ptr, ptr, ptr, ptr, ptr, ptr, ptr, ptr, ptr, ptr, ptr, ptr, ptr, ptr, ptr, ptr, ptr, ptr, ptr, ptr, ptr, ptr, ptr, ptr, ptr, ptr, ptr, ptr, ptr, ptr, ptr, ptr, ptr, ptr, ptr, ptr, ptr, ptr, ptr, ptr, ptr, ptr, ptr, ptr, ptr, ptr, ptr, ptr, ptr, ptr, ptr, ptr, ptr, ptr, ptr, ptr, ptr, ptr, ptr, ptr, ptr, ptr, ptr, ptr, ptr, ptr, ptr, ptr, ptr, ptr, ptr, ptr, ptr, ptr, ptr, ptr, ptr }
%struct.CK_FUNCTION_LIST = type { %struct.CK_VERSION, ptr, ptr, ptr, ptr, ptr, ptr, ptr, ptr, ptr, ptr, ptr, ptr, ptr, ptr, ptr, ptr, ptr, ptr, ptr, ptr, ptr, ptr, ptr, ptr, ptr, ptr, ptr, ptr, ptr, ptr, ptr, ptr, ptr, ptr, ptr, ptr, ptr, ptr, ptr, ptr, ptr, ptr, ptr, ptr, ptr, ptr, ptr, ptr, ptr, ptr, ptr, ptr, ptr, ptr, ptr, ptr, ptr, ptr, ptr, ptr, ptr, ptr, ptr, ptr, ptr, ptr, ptr, ptr }
%struct.CK_VERSION = type { i8, i8 }

; Function Attrs: nounwind uwtable
define i32 @Java_sun_security_pkcs11_wrapper_PKCS11_C_1DigestFinal(ptr noundef %0, ptr noundef %1, i64 noundef %2, ptr noundef %3, i32 noundef %4, i32 noundef %5) #0 {
  %7 = alloca i32, align 4
  %8 = alloca ptr, align 8
  %9 = alloca ptr, align 8
  %10 = alloca i64, align 8
  %11 = alloca ptr, align 8
  %12 = alloca i32, align 4
  %13 = alloca i32, align 4
  %14 = alloca i64, align 8
  %15 = alloca i64, align 8
  %16 = alloca [64 x i8], align 16
  %17 = alloca i64, align 8
  %18 = alloca ptr, align 8
  store ptr %0, ptr %8, align 8
  store ptr %1, ptr %9, align 8
  store i64 %2, ptr %10, align 8
  store ptr %3, ptr %11, align 8
  store i32 %4, ptr %12, align 4
  store i32 %5, ptr %13, align 4
  %19 = load i32, ptr %13, align 4
  %20 = icmp slt i32 64, %19
  br i1 %20, label %21, label %22

21:                                               ; preds = %6
  br label %24

22:                                               ; preds = %6
  %23 = load i32, ptr %13, align 4
  br label %24

24:                                               ; preds = %22, %21
  %25 = phi i32 [ 64, %21 ], [ %23, %22 ]
  %26 = sext i32 %25 to i64
  store i64 %26, ptr %17, align 8
  %27 = load ptr, ptr %8, align 8
  %28 = load ptr, ptr %9, align 8
  %29 = call ptr @getFunctionList(ptr noundef %27, ptr noundef %28)
  store ptr %29, ptr %18, align 8
  %30 = load ptr, ptr %18, align 8
  %31 = icmp eq ptr %30, null
  br i1 %31, label %32, label %33

32:                                               ; preds = %24
  store i32 0, ptr %7, align 4
  br label %59

33:                                               ; preds = %24
  %34 = load i64, ptr %10, align 8
  store i64 %34, ptr %14, align 8
  %35 = load ptr, ptr %18, align 8
  %36 = getelementptr inbounds %struct.CK_FUNCTION_LIST, ptr %35, i32 0, i32 42
  %37 = load ptr, ptr %36, align 8
  %38 = load i64, ptr %14, align 8
  %39 = getelementptr inbounds [64 x i8], ptr %16, i64 0, i64 0
  %40 = call i64 %37(i64 noundef %38, ptr noundef %39, ptr noundef %17)
  store i64 %40, ptr %15, align 8
  %41 = load ptr, ptr %8, align 8
  %42 = load i64, ptr %15, align 8
  %43 = call i64 @ckAssertReturnValueOK(ptr noundef %41, i64 noundef %42)
  %44 = icmp eq i64 %43, 0
  br i1 %44, label %45, label %56

45:                                               ; preds = %33
  %46 = load ptr, ptr %8, align 8
  %47 = load ptr, ptr %46, align 8
  %48 = getelementptr inbounds %struct.JNINativeInterface_, ptr %47, i32 0, i32 208
  %49 = load ptr, ptr %48, align 8
  %50 = load ptr, ptr %8, align 8
  %51 = load ptr, ptr %11, align 8
  %52 = load i32, ptr %12, align 4
  %53 = load i64, ptr %17, align 8
  %54 = trunc i64 %53 to i32
  %55 = getelementptr inbounds [64 x i8], ptr %16, i64 0, i64 0
  call void %49(ptr noundef %50, ptr noundef %51, i32 noundef %52, i32 noundef %54, ptr noundef %55)
  br label %56

56:                                               ; preds = %45, %33
  %57 = load i64, ptr %17, align 8
  %58 = trunc i64 %57 to i32
  store i32 %58, ptr %7, align 4
  br label %59

59:                                               ; preds = %56, %32
  %60 = load i32, ptr %7, align 4
  ret i32 %60
}