; Function Attrs: nounwind uwtable
define i32 @Java_sun_security_pkcs11_wrapper_PKCS11_C_1DigestFinal(ptr noundef %0, ptr noundef %1, i64 noundef %2, ptr noundef %3, i32 noundef %4, i32 noundef %5) local_unnamed_addr #0 {
  %7 = alloca [64 x i8], align 16
  %8 = alloca i64, align 8
  %9 = tail call i32 @llvm.smin.i32(i32 %5, i32 64)
  %10 = sext i32 %9 to i64
  store i64 %10, ptr %8, align 8
  %11 = tail call ptr @getFunctionList(ptr noundef %0, ptr noundef %1) #5
  %12 = icmp eq ptr %11, null
  br i1 %12, label %28, label %13

13:                                               ; preds = %6
  %14 = getelementptr inbounds i8, ptr %11, i64 336
  %15 = load ptr, ptr %14, align 8
  %16 = call i64 %15(i64 noundef %2, ptr noundef nonnull %7, ptr noundef nonnull %8) #5
  %17 = call i64 @ckAssertReturnValueOK(ptr noundef %0, i64 noundef %16) #5
  %18 = icmp eq i64 %17, 0
  br i1 %18, label %19, label %25

19:                                               ; preds = %13
  %20 = load ptr, ptr %0, align 8
  %21 = getelementptr inbounds i8, ptr %20, i64 1664
  %22 = load ptr, ptr %21, align 8
  %23 = load i64, ptr %8, align 8
  %24 = trunc i64 %23 to i32
  call void %22(ptr noundef nonnull %0, ptr noundef %3, i32 noundef %4, i32 noundef %24, ptr noundef nonnull %7) #5
  br label %25

25:                                               ; preds = %19, %13
  %26 = load i64, ptr %8, align 8
  %27 = trunc i64 %26 to i32
  br label %28

28:                                               ; preds = %6, %25
  %.0 = phi i32 [ %27, %25 ], [ 0, %6 ]
  ret i32 %.0
}